; Function Attrs: nounwind uwtable
define dso_local void @ReleaseBuffer(i32 noundef %0) local_unnamed_addr #0 {
  %.not = icmp eq i32 %0, 0
  br i1 %.not, label %2, label %5

2:                                                ; preds = %1
  %3 = tail call zeroext i1 @errstart_cold(i32 noundef 21, ptr noundef null) #17
  tail call void @llvm.assume(i1 %3)
  %4 = tail call i32 (ptr, ...) @errmsg_internal(ptr noundef nonnull @.str.6, i32 noundef 0) #16
  tail call void @errfinish(ptr noundef nonnull @.str.3, i32 noundef 4866, ptr noundef nonnull @__func__.ReleaseBuffer) #16
  unreachable

5:                                                ; preds = %1
  %6 = icmp slt i32 %0, 0
  br i1 %6, label %7, label %8

7:                                                ; preds = %5
  tail call void @UnpinLocalBuffer(i32 noundef %0) #16
  br label %17

8:                                                ; preds = %5
  %9 = load ptr, ptr @BufferDescriptors, align 8
  %10 = zext nneg i32 %0 to i64
  %11 = getelementptr %union.BufferDescPadded, ptr %9, i64 %10
  %12 = getelementptr i8, ptr %11, i64 -64
  %13 = getelementptr i8, ptr %11, i64 -44
  %.val.i = load i32, ptr %13, align 4
  %14 = add i32 %.val.i, 1
  %15 = load ptr, ptr @CurrentResourceOwner, align 8
  %16 = sext i32 %14 to i64
  tail call void @ResourceOwnerForget(ptr noundef %15, i64 noundef %16, ptr noundef nonnull @buffer_pin_resowner_desc) #16
  tail call fastcc void @UnpinBufferNoOwner(ptr noundef %12)
  br label %17

17:                                               ; preds = %8, %7
  ret void
}